target datalayout = "e-m:e-p270:32:32-p271:32:32-p272:64:64-i64:64-i128:128-f80:128-n8:16:32:64-S128"
target triple = "x86_64-pc-linux-gnu"

%class.QString = type { %struct.QArrayDataPointer }
%struct.QArrayDataPointer = type { ptr, ptr, i64 }
%class.QSharedPointer = type { ptr, ptr }
%class.RtpPlayerDialog = type { %class.RtpBaseDialog.base, ptr, ptr, ptr, double, double, double, double, double, double, ptr, ptr, %class.QString, %class.QSharedPointer, %class.QSharedPointer.1, i8, %class.QList.2, ptr, %class.QTimer, i64, i32, ptr, i8, ptr, ptr, ptr, ptr, ptr, %class.QMultiHash, i8, i32, i8, double, ptr, %class.QPoint }
%class.RtpBaseDialog.base = type { %class.WiresharkDialog.base }
%class.WiresharkDialog.base = type <{ %class.GeometryStateDialog, ptr, i8, [7 x i8], %class.QString, %class.QList, i32, i8 }>
%class.GeometryStateDialog = type { %class.QDialog, %class.QString, ptr }
%class.QDialog = type { %class.QWidget }
%class.QWidget = type { %class.QObject, %class.QPaintDevice.base, ptr }
%class.QObject = type { ptr, %class.QScopedPointer }
%class.QScopedPointer = type { ptr }
%class.QPaintDevice.base = type <{ ptr, i16 }>
%class.QList = type { %struct.QArrayDataPointer.0 }
%struct.QArrayDataPointer.0 = type { ptr, ptr, i64 }
%class.QSharedPointer.1 = type { ptr, ptr }
%class.QList.2 = type { %struct.QArrayDataPointer.5 }
%struct.QArrayDataPointer.5 = type { ptr, ptr, i64 }
%class.QTimer = type { %class.QObject }
%class.QMultiHash = type { ptr, i64 }
%class.QPoint = type { i32, i32 }
%class.Ui_RtpPlayerDialog = type { ptr, ptr, ptr, ptr, ptr, ptr, ptr, ptr, ptr, ptr, ptr, ptr, ptr, ptr, ptr, ptr, ptr, ptr, ptr, ptr, ptr, ptr, ptr, ptr, ptr, ptr, ptr, ptr, ptr, ptr, ptr, ptr, ptr, ptr, ptr, ptr, ptr, ptr, ptr, ptr, ptr, ptr, ptr, ptr, ptr, ptr, ptr, ptr, ptr, ptr, ptr, ptr, ptr, ptr, ptr, ptr, ptr, ptr, ptr, ptr, ptr, ptr, ptr, ptr, ptr, ptr, ptr, ptr }
%class.QBasicAtomicInteger = type { %"struct.std::atomic" }
%"struct.std::atomic" = type { %"struct.std::__atomic_base" }
%"struct.std::__atomic_base" = type { i32 }
%struct.QArrayData = type { %class.QBasicAtomicInteger, %class.QFlags.147, i64 }
%class.QFlags.147 = type { i32 }

@.str.255 = private unnamed_addr constant [88 x i8] c"generated/usr/lib/gcc/x86_64-linux-gnu/12/../../../../include/c++/12/bits/atomic_base.h\00", align 1
@__PRETTY_FUNCTION__._ZNKSt13__atomic_baseIiE4loadESt12memory_order = private unnamed_addr constant [74 x i8] c"__int_type std::__atomic_base<int>::load(memory_order) const [_ITp = int]\00", align 1
@.str.256 = private unnamed_addr constant [28 x i8] c"__b != memory_order_release\00", align 1
@.str.257 = private unnamed_addr constant [28 x i8] c"__b != memory_order_acq_rel\00", align 1

; Function Attrs: noinline noreturn nounwind null_pointer_is_valid sspstrong uwtable
define linkonce_odr hidden void @__clang_call_terminate(ptr noundef %0) #10 comdat {
  %2 = call ptr @__cxa_begin_catch(ptr %0) #26
  call void @_ZSt9terminatev() #29
  unreachable
}

; Function Attrs: mustprogress nounwind null_pointer_is_valid sspstrong uwtable
define linkonce_odr noundef i32 @_ZStanSt12memory_orderSt23__memory_order_modifier(i32 noundef %0, i32 noundef %1) #6 comdat {
  %3 = alloca i32, align 4
  %4 = alloca i32, align 4
  store i32 %0, ptr %3, align 4
  store i32 %1, ptr %4, align 4
  %5 = load i32, ptr %3, align 4
  %6 = load i32, ptr %4, align 4
  %7 = and i32 %5, %6
  ret i32 %7
}

; Function Attrs: alwaysinline mustprogress nounwind null_pointer_is_valid sspstrong uwtable
define linkonce_odr noundef i32 @_ZNKSt13__atomic_baseIiE4loadESt12memory_order(ptr noundef align 4 dereferenceable_or_null(4) %0, i32 noundef %1) #12 comdat align 2 personality ptr @__gxx_personality_v0 {
  %3 = alloca ptr, align 8
  %4 = alloca i32, align 4
  %5 = alloca i32, align 4
  %6 = alloca i32, align 4
  store ptr %0, ptr %3, align 8
  store i32 %1, ptr %4, align 4
  %7 = load ptr, ptr %3, align 8
  call void @llvm.lifetime.start.p0(i64 4, ptr %5) #26
  %8 = load i32, ptr %4, align 4
  %9 = invoke noundef i32 @_ZStanSt12memory_orderSt23__memory_order_modifier(i32 noundef %8, i32 noundef 65535)
          to label %10 unwind label %43

10:                                               ; preds = %2
  store i32 %9, ptr %5, align 4
  br label %11

11:                                               ; preds = %10
  %12 = load i32, ptr %5, align 4
  %13 = icmp ne i32 %12, 3
  %14 = xor i1 %13, true
  %15 = zext i1 %14 to i64
  %16 = call i64 @llvm.expect.i64(i64 %15, i64 0)
  %17 = icmp ne i64 %16, 0
  br i1 %17, label %18, label %19

18:                                               ; preds = %11
  call void @_ZSt21__glibcxx_assert_failPKciS0_S0_(ptr noundef @.str.255, i32 noundef 485, ptr noundef @__PRETTY_FUNCTION__._ZNKSt13__atomic_baseIiE4loadESt12memory_order, ptr noundef @.str.256) #29
  unreachable

19:                                               ; preds = %11
  br label %20

20:                                               ; preds = %19
  br label %21

21:                                               ; preds = %20
  br label %22

22:                                               ; preds = %21
  %23 = load i32, ptr %5, align 4
  %24 = icmp ne i32 %23, 4
  %25 = xor i1 %24, true
  %26 = zext i1 %25 to i64
  %27 = call i64 @llvm.expect.i64(i64 %26, i64 0)
  %28 = icmp ne i64 %27, 0
  br i1 %28, label %29, label %30

29:                                               ; preds = %22
  call void @_ZSt21__glibcxx_assert_failPKciS0_S0_(ptr noundef @.str.255, i32 noundef 486, ptr noundef @__PRETTY_FUNCTION__._ZNKSt13__atomic_baseIiE4loadESt12memory_order, ptr noundef @.str.257) #29
  unreachable

30:                                               ; preds = %22
  br label %31

31:                                               ; preds = %30
  br label %32

32:                                               ; preds = %31
  %33 = getelementptr inbounds nuw %"struct.std::__atomic_base", ptr %7, i32 0, i32 0
  %34 = load i32, ptr %4, align 4
  switch i32 %34, label %35 [
    i32 1, label %37
    i32 2, label %37
    i32 5, label %39
  ]

35:                                               ; preds = %32
  %36 = load atomic i32, ptr %33 monotonic, align 4
  store i32 %36, ptr %6, align 4
  br label %41

37:                                               ; preds = %32, %32
  %38 = load atomic i32, ptr %33 acquire, align 4
  store i32 %38, ptr %6, align 4
  br label %41

39:                                               ; preds = %32
  %40 = load atomic i32, ptr %33 seq_cst, align 4
  store i32 %40, ptr %6, align 4
  br label %41

41:                                               ; preds = %39, %37, %35
  %42 = load i32, ptr %6, align 4
  call void @llvm.lifetime.end.p0(i64 4, ptr %5) #26
  ret i32 %42

43:                                               ; preds = %2
  %44 = landingpad { ptr, i32 }
          catch ptr null
  %45 = extractvalue { ptr, i32 } %44, 0
  call void @__clang_call_terminate(ptr %45) #29
  unreachable
}

; Function Attrs: inlinehint mustprogress nounwind null_pointer_is_valid sspstrong uwtable
define linkonce_odr noundef i32 @_ZN10QAtomicOpsIiE11loadRelaxedIiEET_RKSt6atomicIS2_E(ptr noundef align 4 dereferenceable(4) %0) #7 comdat align 2 {
  %2 = alloca ptr, align 8
  store ptr %0, ptr %2, align 8
  %3 = load ptr, ptr %2, align 8
  %4 = call noundef i32 @_ZNKSt13__atomic_baseIiE4loadESt12memory_order(ptr noundef align 4 dereferenceable_or_null(4) %3, i32 noundef 0) #26
  ret i32 %4
}

; Function Attrs: mustprogress nounwind null_pointer_is_valid sspstrong uwtable
define linkonce_odr noundef i32 @_ZNK19QBasicAtomicIntegerIiE11loadRelaxedEv(ptr noundef align 4 dereferenceable_or_null(4) %0) #6 comdat align 2 {
  %2 = alloca ptr, align 8
  store ptr %0, ptr %2, align 8
  %3 = load ptr, ptr %2, align 8
  %4 = getelementptr inbounds nuw %class.QBasicAtomicInteger, ptr %3, i32 0, i32 0
  %5 = call noundef i32 @_ZN10QAtomicOpsIiE11loadRelaxedIiEET_RKSt6atomicIS2_E(ptr noundef align 4 dereferenceable(4) %4) #26
  ret i32 %5
}

; Function Attrs: mustprogress nounwind null_pointer_is_valid sspstrong uwtable
define linkonce_odr noundef zeroext i1 @_ZNK10QArrayData11needsDetachEv(ptr noundef align 8 dereferenceable_or_null(16) %0) #6 comdat align 2 {
  %2 = alloca ptr, align 8
  store ptr %0, ptr %2, align 8
  %3 = load ptr, ptr %2, align 8
  %4 = getelementptr inbounds nuw %struct.QArrayData, ptr %3, i32 0, i32 0
  %5 = call noundef i32 @_ZNK19QBasicAtomicIntegerIiE11loadRelaxedEv(ptr noundef align 4 dereferenceable_or_null(4) %4) #26
  %6 = icmp sgt i32 %5, 1
  ret i1 %6
}

; Function Attrs: mustprogress nounwind null_pointer_is_valid sspstrong uwtable
define linkonce_odr noundef zeroext i1 @_ZNK17QArrayDataPointerIP14RtpAudioStreamE11needsDetachEv(ptr noundef align 8 dereferenceable_or_null(24) %0) #6 comdat align 2 {
  %2 = alloca ptr, align 8
  store ptr %0, ptr %2, align 8
  %3 = load ptr, ptr %2, align 8
  %4 = getelementptr inbounds nuw %struct.QArrayDataPointer.5, ptr %3, i32 0, i32 0
  %5 = load ptr, ptr %4, align 8
  %6 = icmp ne ptr %5, null
  br i1 %6, label %7, label %11

7:                                                ; preds = %1
  %8 = getelementptr inbounds nuw %struct.QArrayDataPointer.5, ptr %3, i32 0, i32 0
  %9 = load ptr, ptr %8, align 8
  %10 = call noundef zeroext i1 @_ZNK10QArrayData11needsDetachEv(ptr noundef align 8 dereferenceable_or_null(16) %9) #26
  br label %11

11:                                               ; preds = %7, %1
  %12 = phi i1 [ true, %1 ], [ %10, %7 ]
  ret i1 %12
}

; Function Attrs: mustprogress nounwind null_pointer_is_valid sspstrong uwtable
define linkonce_odr noundef ptr @_ZN17QArrayDataPointerIP14RtpAudioStreamE4dataEv(ptr noundef align 8 dereferenceable_or_null(24) %0) #6 comdat align 2 {
  %2 = alloca ptr, align 8
  store ptr %0, ptr %2, align 8
  %3 = load ptr, ptr %2, align 8
  %4 = getelementptr inbounds nuw %struct.QArrayDataPointer.5, ptr %3, i32 0, i32 1
  %5 = load ptr, ptr %4, align 8
  ret ptr %5
}

; Function Attrs: mustprogress nounwind null_pointer_is_valid sspstrong uwtable
define linkonce_odr noundef ptr @_ZN17QArrayDataPointerIP14RtpAudioStreamEptEv(ptr noundef align 8 dereferenceable_or_null(24) %0) #6 comdat align 2 {
  %2 = alloca ptr, align 8
  store ptr %0, ptr %2, align 8
  %3 = load ptr, ptr %2, align 8
  ret ptr %3
}

; Function Attrs: mustprogress null_pointer_is_valid sspstrong uwtable
define linkonce_odr void @_ZN17QArrayDataPointerIP14RtpAudioStreamE6detachEPS2_(ptr noundef align 8 dereferenceable_or_null(24) %0, ptr noundef %1) #0 comdat align 2 {
  %3 = alloca ptr, align 8
  %4 = alloca ptr, align 8
  store ptr %0, ptr %3, align 8
  store ptr %1, ptr %4, align 8
  %5 = load ptr, ptr %3, align 8
  %6 = call noundef zeroext i1 @_ZNK17QArrayDataPointerIP14RtpAudioStreamE11needsDetachEv(ptr noundef align 8 dereferenceable_or_null(24) %5) #26
  br i1 %6, label %7, label %9

7:                                                ; preds = %2
  %8 = load ptr, ptr %4, align 8
  call void @_ZN17QArrayDataPointerIP14RtpAudioStreamE17reallocateAndGrowEN10QArrayData14GrowthPositionExPS2_(ptr noundef align 8 dereferenceable_or_null(24) %5, i32 noundef 0, i64 noundef 0, ptr noundef %8)
  br label %9

9:                                                ; preds = %7, %2
  ret void
}

; Function Attrs: mustprogress nounwind null_pointer_is_valid sspstrong uwtable
define linkonce_odr noundef ptr @_ZNK17QArrayDataPointerIP14RtpAudioStreamEptEv(ptr noundef align 8 dereferenceable_or_null(24) %0) #6 comdat align 2 {
  %2 = alloca ptr, align 8
  store ptr %0, ptr %2, align 8
  %3 = load ptr, ptr %2, align 8
  ret ptr %3
}

; Function Attrs: mustprogress null_pointer_is_valid sspstrong uwtable
define linkonce_odr noundef ptr @_ZN5QListIP14RtpAudioStreamE4dataEv(ptr noundef align 8 dereferenceable_or_null(24) %0) #0 comdat align 2 {
  %2 = alloca ptr, align 8
  store ptr %0, ptr %2, align 8
  %3 = load ptr, ptr %2, align 8
  call void @_ZN5QListIP14RtpAudioStreamE6detachEv(ptr noundef align 8 dereferenceable_or_null(24) %3)
  %4 = getelementptr inbounds nuw %class.QList.2, ptr %3, i32 0, i32 0
  %5 = call noundef ptr @_ZN17QArrayDataPointerIP14RtpAudioStreamEptEv(ptr noundef align 8 dereferenceable_or_null(24) %4) #26
  %6 = call noundef ptr @_ZN17QArrayDataPointerIP14RtpAudioStreamE4dataEv(ptr noundef align 8 dereferenceable_or_null(24) %5) #26
  ret ptr %6
}

; Function Attrs: mustprogress null_pointer_is_valid sspstrong uwtable
define linkonce_odr void @_ZN5QListIP14RtpAudioStreamE6detachEv(ptr noundef align 8 dereferenceable_or_null(24) %0) #0 comdat align 2 {
  %2 = alloca ptr, align 8
  store ptr %0, ptr %2, align 8
  %3 = load ptr, ptr %2, align 8
  %4 = getelementptr inbounds nuw %class.QList.2, ptr %3, i32 0, i32 0
  call void @_ZN17QArrayDataPointerIP14RtpAudioStreamE6detachEPS2_(ptr noundef align 8 dereferenceable_or_null(24) %4, ptr noundef null)
  ret void
}

; Function Attrs: mustprogress nounwind null_pointer_is_valid sspstrong uwtable
define linkonce_odr noundef i64 @_ZNK5QListIP14RtpAudioStreamE4sizeEv(ptr noundef align 8 dereferenceable_or_null(24) %0) #6 comdat align 2 {
  %2 = alloca ptr, align 8
  store ptr %0, ptr %2, align 8
  %3 = load ptr, ptr %2, align 8
  %4 = getelementptr inbounds nuw %class.QList.2, ptr %3, i32 0, i32 0
  %5 = call noundef ptr @_ZNK17QArrayDataPointerIP14RtpAudioStreamEptEv(ptr noundef align 8 dereferenceable_or_null(24) %4) #26
  %6 = getelementptr inbounds nuw %struct.QArrayDataPointer.5, ptr %5, i32 0, i32 2
  %7 = load i64, ptr %6, align 8
  ret i64 %7
}

; Function Attrs: mustprogress null_pointer_is_valid sspstrong uwtable
define linkonce_odr noundef align 8 dereferenceable(8) ptr @_ZN5QListIP14RtpAudioStreamEixEx(ptr noundef align 8 dereferenceable_or_null(24) %0, i64 noundef %1) #0 comdat align 2 {
  %3 = alloca ptr, align 8
  %4 = alloca i64, align 8
  store ptr %0, ptr %3, align 8
  store i64 %1, ptr %4, align 8
  %5 = load ptr, ptr %3, align 8
  call void @_ZN5QListIP14RtpAudioStreamE6detachEv(ptr noundef align 8 dereferenceable_or_null(24) %5)
  %6 = call noundef ptr @_ZN5QListIP14RtpAudioStreamE4dataEv(ptr noundef align 8 dereferenceable_or_null(24) %5)
  %7 = load i64, ptr %4, align 8
  %8 = getelementptr ptr, ptr %6, i64 %7
  ret ptr %8
}

; Function Attrs: mustprogress nounwind null_pointer_is_valid sspstrong uwtable
define linkonce_odr noundef i64 @_ZNK5QListIP14RtpAudioStreamE5countEv(ptr noundef align 8 dereferenceable_or_null(24) %0) #6 comdat align 2 {
  %2 = alloca ptr, align 8
  store ptr %0, ptr %2, align 8
  %3 = load ptr, ptr %2, align 8
  %4 = call noundef i64 @_ZNK5QListIP14RtpAudioStreamE4sizeEv(ptr noundef align 8 dereferenceable_or_null(24) %3) #26
  ret i64 %4
}

; Function Attrs: mustprogress null_pointer_is_valid sspstrong uwtable
define void @_ZN15RtpPlayerDialog22on_pauseButton_clickedEv(ptr noundef align 8 dereferenceable_or_null(472) %0) #0 align 2 {
  %2 = alloca ptr, align 8
  %3 = alloca i32, align 4
  store ptr %0, ptr %2, align 8
  %4 = load ptr, ptr %2, align 8
  call void @llvm.lifetime.start.p0(i64 4, ptr %3) #26
  store i32 0, ptr %3, align 4
  br label %5

5:                                                ; preds = %18, %1
  %6 = load i32, ptr %3, align 4
  %7 = sext i32 %6 to i64
  %8 = getelementptr inbounds nuw %class.RtpPlayerDialog, ptr %4, i32 0, i32 16
  %9 = call noundef i64 @_ZNK5QListIP14RtpAudioStreamE5countEv(ptr noundef align 8 dereferenceable_or_null(24) %8) #26
  %10 = icmp slt i64 %7, %9
  br i1 %10, label %12, label %11

11:                                               ; preds = %5
  call void @llvm.lifetime.end.p0(i64 4, ptr %3) #26
  br label %21

12:                                               ; preds = %5
  %13 = getelementptr inbounds nuw %class.RtpPlayerDialog, ptr %4, i32 0, i32 16
  %14 = load i32, ptr %3, align 4
  %15 = sext i32 %14 to i64
  %16 = call noundef align 8 dereferenceable(8) ptr @_ZN5QListIP14RtpAudioStreamEixEx(ptr noundef align 8 dereferenceable_or_null(24) %13, i64 noundef %15)
  %17 = load ptr, ptr %16, align 8
  call void @_ZN14RtpAudioStream12pausePlayingEv(ptr noundef align 8 dereferenceable_or_null(7672) %17)
  br label %18

18:                                               ; preds = %12
  %19 = load i32, ptr %3, align 4
  %20 = add i32 %19, 1
  store i32 %20, ptr %3, align 4
  br label %5, !llvm.loop !40

21:                                               ; preds = %11
  %22 = getelementptr inbounds nuw %class.RtpPlayerDialog, ptr %4, i32 0, i32 1
  %23 = load ptr, ptr %22, align 8
  %24 = getelementptr inbounds nuw %class.Ui_RtpPlayerDialog, ptr %23, i32 0, i32 44
  %25 = load ptr, ptr %24, align 8
  %26 = call noundef zeroext i1 @_ZNK15QAbstractButton9isCheckedEv(ptr noundef align 8 dereferenceable_or_null(40) %25)
  br i1 %26, label %27, label %30

27:                                               ; preds = %21
  %28 = getelementptr inbounds nuw %class.RtpPlayerDialog, ptr %4, i32 0, i32 17
  %29 = load ptr, ptr %28, align 8
  call void @_ZN10QAudioSink7suspendEv(ptr noundef align 8 dereferenceable_or_null(24) %29)
  br label %33

30:                                               ; preds = %21
  %31 = getelementptr inbounds nuw %class.RtpPlayerDialog, ptr %4, i32 0, i32 17
  %32 = load ptr, ptr %31, align 8
  call void @_ZN10QAudioSink6resumeEv(ptr noundef align 8 dereferenceable_or_null(24) %32)
  br label %33

33:                                               ; preds = %30, %27
  %34 = load ptr, ptr %4, align 8
  %35 = getelementptr inbounds ptr, ptr %34, i64 58
  %36 = load ptr, ptr %35, align 8
  call void %36(ptr noundef align 8 dereferenceable_or_null(472) %4)
  ret void
}