; Function Attrs: mustprogress null_pointer_is_valid sspstrong uwtable
define void @_ZN15RtpPlayerDialog22on_pauseButton_clickedEv(ptr noundef align 8 dereferenceable_or_null(472) %0) local_unnamed_addr #0 align 2 personality ptr @__gxx_personality_v0 {
  %2 = getelementptr inbounds nuw i8, ptr %0, i64 296
  %3 = getelementptr inbounds nuw i8, ptr %0, i64 312
  %4 = load i64, ptr %3, align 8
  %5 = icmp sgt i64 %4, 0
  br i1 %5, label %.lr.ph, label %._crit_edge

.lr.ph:                                           ; preds = %1
  %6 = getelementptr inbounds nuw i8, ptr %0, i64 304
  br label %14

._crit_edge:                                      ; preds = %_ZN5QListIP14RtpAudioStreamEixEx.exit, %1
  %7 = getelementptr inbounds nuw i8, ptr %0, i64 144
  %8 = load ptr, ptr %7, align 8
  %9 = getelementptr inbounds nuw i8, ptr %8, i64 352
  %10 = load ptr, ptr %9, align 8
  %11 = tail call noundef zeroext i1 @_ZNK15QAbstractButton9isCheckedEv(ptr noundef align 8 dereferenceable_or_null(40) %10)
  %12 = getelementptr inbounds nuw i8, ptr %0, i64 320
  %13 = load ptr, ptr %12, align 8
  br i1 %11, label %29, label %30

14:                                               ; preds = %.lr.ph, %_ZN5QListIP14RtpAudioStreamEixEx.exit
  %15 = phi i64 [ 0, %.lr.ph ], [ %26, %_ZN5QListIP14RtpAudioStreamEixEx.exit ]
  %.04 = phi i32 [ 0, %.lr.ph ], [ %25, %_ZN5QListIP14RtpAudioStreamEixEx.exit ]
  %16 = load ptr, ptr %2, align 8
  %.not.i.i.i.i = icmp eq ptr %16, null
  br i1 %.not.i.i.i.i, label %_ZN5QListIP14RtpAudioStreamE6detachEv.exit.i, label %_ZNK17QArrayDataPointerIP14RtpAudioStreamE11needsDetachEv.exit.i.i.i

_ZNK17QArrayDataPointerIP14RtpAudioStreamE11needsDetachEv.exit.i.i.i: ; preds = %14
  %17 = load atomic i32, ptr %16 monotonic, align 4
  %18 = icmp sgt i32 %17, 1
  br i1 %18, label %_ZN5QListIP14RtpAudioStreamE6detachEv.exit.i, label %_ZNK17QArrayDataPointerIP14RtpAudioStreamE11needsDetachEv.exit.i.i.i.i

_ZN5QListIP14RtpAudioStreamE6detachEv.exit.i:     ; preds = %_ZNK17QArrayDataPointerIP14RtpAudioStreamE11needsDetachEv.exit.i.i.i, %14
  tail call void @_ZN17QArrayDataPointerIP14RtpAudioStreamE17reallocateAndGrowEN10QArrayData14GrowthPositionExPS2_(ptr noundef nonnull align 8 dereferenceable_or_null(24) %2, i32 noundef 0, i64 noundef 0, ptr noundef null)
  %.pre.i = load ptr, ptr %2, align 8
  %.not.i.i.i.i.i = icmp eq ptr %.pre.i, null
  br i1 %.not.i.i.i.i.i, label %_ZNK17QArrayDataPointerIP14RtpAudioStreamE11needsDetachEv.exit.thread.i.i.i.i, label %_ZNK17QArrayDataPointerIP14RtpAudioStreamE11needsDetachEv.exit.i.i.i.i

_ZNK17QArrayDataPointerIP14RtpAudioStreamE11needsDetachEv.exit.i.i.i.i: ; preds = %_ZN5QListIP14RtpAudioStreamE6detachEv.exit.i, %_ZNK17QArrayDataPointerIP14RtpAudioStreamE11needsDetachEv.exit.i.i.i
  %19 = phi ptr [ %.pre.i, %_ZN5QListIP14RtpAudioStreamE6detachEv.exit.i ], [ %16, %_ZNK17QArrayDataPointerIP14RtpAudioStreamE11needsDetachEv.exit.i.i.i ]
  %20 = load atomic i32, ptr %19 monotonic, align 4
  %21 = icmp sgt i32 %20, 1
  br i1 %21, label %_ZNK17QArrayDataPointerIP14RtpAudioStreamE11needsDetachEv.exit.thread.i.i.i.i, label %_ZN5QListIP14RtpAudioStreamEixEx.exit

_ZNK17QArrayDataPointerIP14RtpAudioStreamE11needsDetachEv.exit.thread.i.i.i.i: ; preds = %_ZNK17QArrayDataPointerIP14RtpAudioStreamE11needsDetachEv.exit.i.i.i.i, %_ZN5QListIP14RtpAudioStreamE6detachEv.exit.i
  tail call void @_ZN17QArrayDataPointerIP14RtpAudioStreamE17reallocateAndGrowEN10QArrayData14GrowthPositionExPS2_(ptr noundef nonnull align 8 dereferenceable_or_null(24) %2, i32 noundef 0, i64 noundef 0, ptr noundef null)
  br label %_ZN5QListIP14RtpAudioStreamEixEx.exit

_ZN5QListIP14RtpAudioStreamEixEx.exit:            ; preds = %_ZNK17QArrayDataPointerIP14RtpAudioStreamE11needsDetachEv.exit.i.i.i.i, %_ZNK17QArrayDataPointerIP14RtpAudioStreamE11needsDetachEv.exit.thread.i.i.i.i
  %22 = load ptr, ptr %6, align 8
  %23 = getelementptr ptr, ptr %22, i64 %15
  %24 = load ptr, ptr %23, align 8
  tail call void @_ZN14RtpAudioStream12pausePlayingEv(ptr noundef align 8 dereferenceable_or_null(7672) %24)
  %25 = add i32 %.04, 1
  %26 = sext i32 %25 to i64
  %27 = load i64, ptr %3, align 8
  %28 = icmp sgt i64 %27, %26
  br i1 %28, label %14, label %._crit_edge, !llvm.loop !159

29:                                               ; preds = %._crit_edge
  tail call void @_ZN10QAudioSink7suspendEv(ptr noundef align 8 dereferenceable_or_null(24) %13)
  br label %31

30:                                               ; preds = %._crit_edge
  tail call void @_ZN10QAudioSink6resumeEv(ptr noundef align 8 dereferenceable_or_null(24) %13)
  br label %31

31:                                               ; preds = %30, %29
  %32 = load ptr, ptr %0, align 8
  %33 = getelementptr inbounds nuw i8, ptr %32, i64 464
  %34 = load ptr, ptr %33, align 8
  tail call void %34(ptr noundef align 8 dereferenceable_or_null(472) %0)
  ret void
}